; Function Attrs: mustprogress nounwind uwtable
define hidden void @_ZN19G1HeapRegionManager31clear_auxiliary_data_structuresEjj(ptr nocapture noundef nonnull readonly align 8 dereferenceable(232) %0, i32 noundef %1, i32 noundef %2) local_unnamed_addr #0 align 2 {
  %4 = getelementptr inbounds i8, ptr %0, i64 152
  %5 = load ptr, ptr %4, align 8
  %6 = zext i32 %2 to i64
  tail call void @_ZN21G1RegionToSpaceMapper22signal_mapping_changedEjm(ptr noundef nonnull align 8 dereferenceable(129) %5, i32 noundef %1, i64 noundef %6) #16
  %7 = load ptr, ptr %0, align 8
  tail call void @_ZN21G1RegionToSpaceMapper22signal_mapping_changedEjm(ptr noundef nonnull align 8 dereferenceable(129) %7, i32 noundef %1, i64 noundef %6) #16
  %8 = getelementptr inbounds i8, ptr %0, i64 8
  %9 = load ptr, ptr %8, align 8
  tail call void @_ZN21G1RegionToSpaceMapper22signal_mapping_changedEjm(ptr noundef nonnull align 8 dereferenceable(129) %9, i32 noundef %1, i64 noundef %6) #16
  ret void
}